Certificate:
    Data:
        Version: 3 (0x2)
        Serial Number:
            b5:bd:d2:e9:38:83:af:13
        Signature Algorithm: sha1WithRSAEncryption
        Issuer: C=AU, ST=Some-State, O=Internet Widgits Pty Ltd, CN=example.com
        Validity
            Not Before: Mar 20 08:59:36 2016 GMT
            Not After : Mar 20 08:59:36 2017 GMT
        Subject: C=AU, ST=Some-State, O=Internet Widgits Pty Ltd, CN=example.com
        Subject Public Key Info:
            Public Key Algorithm: rsaEncryption
            RSA Public Key: (2048 bit)
                Modulus (2048 bit):
                    00:bf:8c:3e:c1:4e:e6:84:40:19:b9:15:78:19:a8:
                    09:e4:c6:ad:15:de:b6:99:e1:f6:84:0d:ac:52:33:
                    11:1b:3a:45:b2:06:bd:cc:9b:34:d3:83:85:0b:ab:
                    73:cd:9f:73:d7:b6:69:be:c6:3f:03:ae:94:8c:3b:
                    2f:6b:1e:70:97:31:7b:0b:44:1c:8f:4b:50:7b:0a:
                    18:e6:51:89:1a:fc:a3:ed:89:19:f6:db:88:ab:ce:
                    6d:81:c0:b3:2f:d1:7d:62:6d:c2:54:fc:06:d5:f0:
                    4c:ca:c8:21:e6:d7:89:10:59:47:9a:5d:3e:6a:fc:
                    38:60:54:33:54:b0:63:1a:32:5c:bc:d2:92:76:40:
                    b6:8b:ad:4f:8f:34:f4:c7:17:02:e5:69:7f:62:20:
                    ca:bd:e2:4d:47:f2:bb:93:19:d0:7e:64:74:f4:f9:
                    77:46:5f:fd:af:da:8f:51:2f:45:0e:3a:fb:51:c2:
                    2a:75:31:2d:30:44:d4:b7:a5:97:47:5d:10:41:47:
                    b1:a2:5b:52:37:f9:5f:43:45:e0:d9:ac:5a:83:95:
                    8c:77:e0:11:7d:8f:35:62:a6:cf:b0:d3:15:25:e2:
                    79:7d:0d:84:f8:7c:69:34:64:a1:6c:19:d4:79:95:
                    6c:80:b5:cc:55:7d:c1:4a:6b:d2:1a:fd:57:e6:eb:
                    39:21
                Exponent: 65537 (0x10001)
        X509v3 extensions:
            X509v3 Basic Constraints: 
                CA:FALSE
            Netscape Comment: 
                OpenSSL Generated Certificate
            X509v3 Subject Key Identifier: 
                A5:72:FA:63:A7:2A:38:0E:93:9D:DB:65:1E:67:DA:92:AB:8B:F3:EB
            X509v3 Authority Key Identifier: 
                keyid:20:08:2F:4F:50:CA:CD:55:16:86:0C:33:CC:A0:EA:AE:77:6C:A4:E7

    Signature Algorithm: sha1WithRSAEncryption
        40:95:de:b5:7c:ae:07:d1:46:df:f3:6d:d4:46:e7:6b:3a:a9:
        9d:10:ab:14:34:6b:39:a7:2d:d7:8b:8c:ba:b5:3d:8a:39:83:
        e8:0b:54:6c:2c:ac:8a:6a:59:a2:86:94:fa:62:73:11:c1:45:
        93:4f:ad:b4:05:d1:d3:db:03:a2:62:ff:9d:b0:f8:50:55:69:
        c5:1c:20:9c:65:83:c1:2f:29:af:ac:e2:13:d7:2c:82:fb:9e:
        b7:87:03:9c:19:f6:aa:66:e5:5c:3c:67:04:a7:41:b3:a7:06:
        f8:6c:8e:22:62:58:19:9d:04:df:f7:20:71:d3:56:28:72:c9:
        d5:92
-----BEGIN CERTIFICATE-----
MIIDMzCCApygAwIBAgIJALW90uk4g68TMA0GCSqGSIb3DQEBBQUAMFsxCzAJBgNV
BAYTAkFVMRMwEQYDVQQIEwpTb21lLVN0YXRlMSEwHwYDVQQKExhJbnRlcm5ldCBX
aWRnaXRzIFB0eSBMdGQxFDASBgNVBAMTC2V4YW1wbGUuY29tMB4XDTE2MDMyMDA4
NTkzNloXDTE3MDMyMDA4NTkzNlowWzELMAkGA1UEBhMCQVUxEzARBgNVBAgTClNv
bWUtU3RhdGUxITAfBgNVBAoTGEludGVybmV0IFdpZGdpdHMgUHR5IEx0ZDEUMBIG
A1UEAxMLZXhhbXBsZS5jb20wggEiMA0GCSqGSIb3DQEBAQUAA4IBDwAwggEKAoIB
AQC/jD7BTuaEQBm5FXgZqAnkxq0V3raZ4faEDaxSMxEbOkWyBr3MmzTTg4ULq3PN
n3PXtmm+xj8DrpSMOy9rHnCXMXsLRByPS1B7ChjmUYka/KPtiRn224irzm2BwLMv
0X1ibcJU/AbV8EzKyCHm14kQWUeaXT5q/DhgVDNUsGMaMly80pJ2QLaLrU+PNPTH
FwLlaX9iIMq94k1H8ruTGdB+ZHT0+XdGX/2v2o9RL0UOOvtRwip1MS0wRNS3pZdH
XRBBR7GiW1I3+V9DReDZrFqDlYx34BF9jzVips+w0xUl4nl9DYT4fGk0ZKFsGdR5
lWyAtcxVfcFKa9Ia/Vfm6zkhAgMBAAGjezB5MAkGA1UdEwQCMAAwLAYJYIZIAYb4
QgENBB8WHU9wZW5TU0wgR2VuZXJhdGVkIENlcnRpZmljYXRlMB0GA1UdDgQWBBSl
cvpjpyo4DpOd22UeZ9qSq4vz6zAfBgNVHSMEGDAWgBQgCC9PUMrNVRaGDDPMoOqu
d2yk5zANBgkqhkiG9w0BAQUFAAOBgQBAld61fK4H0Ubf823URudrOqmdEKsUNGs5
py3Xi4y6tT2KOYPoC1RsLKyKalmihpT6YnMRwUWTT620BdHT2wOiYv+dsPhQVWnF
HCCcZYPBLymvrOIT1yyC+563hwOcGfaqZuVcPGcEp0Gzpwb4bI4iYlgZnQTf9yBx
01YocsnVkg==
-----END CERTIFICATE-----
